target datalayout = "e-m:e-p270:32:32-p271:32:32-p272:64:64-i64:64-i128:128-f80:128-n8:16:32:64-S128"
target triple = "x86_64-unknown-linux-gnu"

@_ZN12_GLOBAL__N_137mfStopwatchCyclesToMinutesCoefficientE = internal global float 0.000000e+00, align 4
@_ZN12_GLOBAL__N_137mfStopwatchCyclesToSecondsCoefficientE = internal global float 0.000000e+00, align 4
@_ZN12_GLOBAL__N_142mfStopwatchCyclesToMillisecondsCoefficientE = internal global float 0.000000e+00, align 4
@_ZN12_GLOBAL__N_142mfStopwatchCyclesToMicrosecondsCoefficientE = internal global float 0.000000e+00, align 4
@_ZN12_GLOBAL__N_141mfStopwatchCyclesToNanosecondsCoefficientE = internal global float 0.000000e+00, align 4

; Function Attrs: mustprogress nounwind uwtable
define dso_local noundef float @_ZN2EA4StdC9Stopwatch25GetUnitsPerStopwatchCycleENS1_5UnitsE(i32 noundef %units) #1 align 2 {
entry:
  %retval = alloca float, align 4
  %units.addr = alloca i32, align 4
  store i32 %units, ptr %units.addr, align 4
  %0 = load i32, ptr %units.addr, align 4
  switch i32 %0, label %sw.default [
    i32 2, label %sw.bb
    i32 3, label %sw.bb1
    i32 4, label %sw.bb2
    i32 5, label %sw.bb3
    i32 6, label %sw.bb4
    i32 0, label %sw.bb5
    i32 1, label %sw.bb5
    i32 1000, label %sw.bb5
  ]

sw.bb:                                            ; preds = %entry
  %1 = load float, ptr @_ZN12_GLOBAL__N_141mfStopwatchCyclesToNanosecondsCoefficientE, align 4
  store float %1, ptr %retval, align 4
  br label %return

sw.bb1:                                           ; preds = %entry
  %2 = load float, ptr @_ZN12_GLOBAL__N_142mfStopwatchCyclesToMicrosecondsCoefficientE, align 4
  store float %2, ptr %retval, align 4
  br label %return

sw.bb2:                                           ; preds = %entry
  %3 = load float, ptr @_ZN12_GLOBAL__N_142mfStopwatchCyclesToMillisecondsCoefficientE, align 4
  store float %3, ptr %retval, align 4
  br label %return

sw.bb3:                                           ; preds = %entry
  %4 = load float, ptr @_ZN12_GLOBAL__N_137mfStopwatchCyclesToSecondsCoefficientE, align 4
  store float %4, ptr %retval, align 4
  br label %return

sw.bb4:                                           ; preds = %entry
  %5 = load float, ptr @_ZN12_GLOBAL__N_137mfStopwatchCyclesToMinutesCoefficientE, align 4
  store float %5, ptr %retval, align 4
  br label %return

sw.bb5:                                           ; preds = %entry, %entry, %entry
  br label %sw.default

sw.default:                                       ; preds = %sw.bb5, %entry
  br label %sw.epilog

sw.epilog:                                        ; preds = %sw.default
  store float 1.000000e+00, ptr %retval, align 4
  br label %return

return:                                           ; preds = %sw.epilog, %sw.bb4, %sw.bb3, %sw.bb2, %sw.bb1, %sw.bb
  %6 = load float, ptr %retval, align 4
  ret float %6
}