; Function Attrs: mustprogress nofree norecurse nosync nounwind willreturn memory(read, argmem: none, inaccessiblemem: none) uwtable
define dso_local noundef float @_ZN2EA4StdC9Stopwatch25GetUnitsPerStopwatchCycleENS1_5UnitsE(i32 noundef %units) local_unnamed_addr #5 align 2 {
entry:
  switch i32 %units, label %return [
    i32 2, label %sw.bb
    i32 3, label %sw.bb1
    i32 4, label %sw.bb2
    i32 5, label %sw.bb3
    i32 6, label %sw.bb4
  ]

sw.bb:                                            ; preds = %entry
  %0 = load float, ptr @_ZN12_GLOBAL__N_141mfStopwatchCyclesToNanosecondsCoefficientE, align 4
  br label %return

sw.bb1:                                           ; preds = %entry
  %1 = load float, ptr @_ZN12_GLOBAL__N_142mfStopwatchCyclesToMicrosecondsCoefficientE, align 4
  br label %return

sw.bb2:                                           ; preds = %entry
  %2 = load float, ptr @_ZN12_GLOBAL__N_142mfStopwatchCyclesToMillisecondsCoefficientE, align 4
  br label %return

sw.bb3:                                           ; preds = %entry
  %3 = load float, ptr @_ZN12_GLOBAL__N_137mfStopwatchCyclesToSecondsCoefficientE, align 4
  br label %return

sw.bb4:                                           ; preds = %entry
  %4 = load float, ptr @_ZN12_GLOBAL__N_137mfStopwatchCyclesToMinutesCoefficientE, align 4
  br label %return

return:                                           ; preds = %entry, %sw.bb4, %sw.bb3, %sw.bb2, %sw.bb1, %sw.bb
  %retval.0 = phi float [ %4, %sw.bb4 ], [ %3, %sw.bb3 ], [ %2, %sw.bb2 ], [ %1, %sw.bb1 ], [ %0, %sw.bb ], [ 1.000000e+00, %entry ]
  ret float %retval.0
}